target datalayout = "e-m:e-p270:32:32-p271:32:32-p272:64:64-i64:64-i128:128-f80:128-n8:16:32:64-S128"
target triple = "x86_64-pc-linux-gnu"

%struct.LOCKTAG = type { i32, i32, i32, i16, i8, i8 }
%struct.LOCALLOCKTAG = type { %struct.LOCKTAG, i32 }
%struct.LOCALLOCK = type { %struct.LOCALLOCKTAG, i32, ptr, ptr, i64, i32, i32, ptr, i8, i8 }

@LockMethodLocalHash = internal global ptr null, align 8

; Function Attrs: nounwind uwtable
define dso_local zeroext i1 @LockHeldByMe(ptr noundef %0, i32 noundef %1, i1 noundef zeroext %2) #0 {
  %4 = alloca i1, align 1
  %5 = alloca ptr, align 8
  %6 = alloca i32, align 4
  %7 = alloca i8, align 1
  %8 = alloca %struct.LOCALLOCKTAG, align 4
  %9 = alloca ptr, align 8
  %10 = alloca ptr, align 8
  %11 = alloca i32, align 4
  %12 = alloca i64, align 8
  %13 = alloca ptr, align 8
  %14 = alloca ptr, align 8
  %15 = alloca i32, align 4
  %16 = alloca i32, align 4
  store ptr %0, ptr %5, align 8
  store i32 %1, ptr %6, align 4
  %17 = zext i1 %2 to i8
  store i8 %17, ptr %7, align 1
  call void @llvm.lifetime.start.p0(i64 20, ptr %8) #9
  call void @llvm.lifetime.start.p0(i64 8, ptr %9) #9
  br label %18

18:                                               ; preds = %3
  call void @llvm.lifetime.start.p0(i64 8, ptr %10) #9
  store ptr %8, ptr %10, align 8
  call void @llvm.lifetime.start.p0(i64 4, ptr %11) #9
  store i32 0, ptr %11, align 4
  call void @llvm.lifetime.start.p0(i64 8, ptr %12) #9
  store i64 20, ptr %12, align 8
  %19 = load ptr, ptr %10, align 8
  %20 = ptrtoint ptr %19 to i64
  %21 = and i64 %20, 7
  %22 = icmp eq i64 %21, 0
  br i1 %22, label %23, label %46

23:                                               ; preds = %18
  %24 = load i64, ptr %12, align 8
  %25 = and i64 %24, 7
  %26 = icmp eq i64 %25, 0
  br i1 %26, label %27, label %46

27:                                               ; preds = %23
  %28 = load i32, ptr %11, align 4
  %29 = icmp eq i32 %28, 0
  br i1 %29, label %30, label %46

30:                                               ; preds = %27
  %31 = load i64, ptr %12, align 8
  %32 = icmp ule i64 %31, 1024
  br i1 %32, label %33, label %46

33:                                               ; preds = %30
  call void @llvm.lifetime.start.p0(i64 8, ptr %13) #9
  %34 = load ptr, ptr %10, align 8
  store ptr %34, ptr %13, align 8
  call void @llvm.lifetime.start.p0(i64 8, ptr %14) #9
  %35 = load ptr, ptr %13, align 8
  %36 = load i64, ptr %12, align 8
  %37 = getelementptr inbounds nuw i8, ptr %35, i64 %36
  store ptr %37, ptr %14, align 8
  br label %38

38:                                               ; preds = %42, %33
  %39 = load ptr, ptr %13, align 8
  %40 = load ptr, ptr %14, align 8
  %41 = icmp ult ptr %39, %40
  br i1 %41, label %42, label %45

42:                                               ; preds = %38
  %43 = load ptr, ptr %13, align 8
  %44 = getelementptr inbounds nuw i64, ptr %43, i32 1
  store ptr %44, ptr %13, align 8
  store i64 0, ptr %43, align 8
  br label %38, !llvm.loop !7

45:                                               ; preds = %38
  call void @llvm.lifetime.end.p0(i64 8, ptr %14) #9
  call void @llvm.lifetime.end.p0(i64 8, ptr %13) #9
  br label %51

46:                                               ; preds = %30, %27, %23, %18
  %47 = load ptr, ptr %10, align 8
  %48 = load i32, ptr %11, align 4
  %49 = trunc i32 %48 to i8
  %50 = load i64, ptr %12, align 8
  call void @llvm.memset.p0.i64(ptr align 1 %47, i8 %49, i64 %50, i1 false)
  br label %51

51:                                               ; preds = %46, %45
  call void @llvm.lifetime.end.p0(i64 8, ptr %12) #9
  call void @llvm.lifetime.end.p0(i64 4, ptr %11) #9
  call void @llvm.lifetime.end.p0(i64 8, ptr %10) #9
  br label %52

52:                                               ; preds = %51
  br label %53

53:                                               ; preds = %52
  %54 = getelementptr inbounds nuw %struct.LOCALLOCKTAG, ptr %8, i32 0, i32 0
  %55 = load ptr, ptr %5, align 8
  call void @llvm.memcpy.p0.p0.i64(ptr align 4 %54, ptr align 4 %55, i64 16, i1 false)
  %56 = load i32, ptr %6, align 4
  %57 = getelementptr inbounds nuw %struct.LOCALLOCKTAG, ptr %8, i32 0, i32 1
  store i32 %56, ptr %57, align 4
  %58 = load ptr, ptr @LockMethodLocalHash, align 8
  %59 = call ptr @hash_search(ptr noundef %58, ptr noundef %8, i32 noundef 0, ptr noundef null)
  store ptr %59, ptr %9, align 8
  %60 = load ptr, ptr %9, align 8
  %61 = icmp ne ptr %60, null
  br i1 %61, label %62, label %68

62:                                               ; preds = %53
  %63 = load ptr, ptr %9, align 8
  %64 = getelementptr inbounds nuw %struct.LOCALLOCK, ptr %63, i32 0, i32 4
  %65 = load i64, ptr %64, align 8
  %66 = icmp sgt i64 %65, 0
  br i1 %66, label %67, label %68

67:                                               ; preds = %62
  store i1 true, ptr %4, align 1
  store i32 1, ptr %15, align 4
  br label %91

68:                                               ; preds = %62, %53
  %69 = load i8, ptr %7, align 1, !range !4, !noundef !5
  %70 = trunc i8 %69 to i1
  br i1 %70, label %71, label %90

71:                                               ; preds = %68
  call void @llvm.lifetime.start.p0(i64 4, ptr %16) #9
  %72 = load i32, ptr %6, align 4
  %73 = add i32 %72, 1
  store i32 %73, ptr %16, align 4
  br label %74

74:                                               ; preds = %83, %71
  %75 = load i32, ptr %16, align 4
  %76 = icmp sle i32 %75, 8
  br i1 %76, label %77, label %86

77:                                               ; preds = %74
  %78 = load ptr, ptr %5, align 8
  %79 = load i32, ptr %16, align 4
  %80 = call zeroext i1 @LockHeldByMe(ptr noundef %78, i32 noundef %79, i1 noundef zeroext false)
  br i1 %80, label %81, label %82

81:                                               ; preds = %77
  store i1 true, ptr %4, align 1
  store i32 1, ptr %15, align 4
  br label %87

82:                                               ; preds = %77
  br label %83

83:                                               ; preds = %82
  %84 = load i32, ptr %16, align 4
  %85 = add i32 %84, 1
  store i32 %85, ptr %16, align 4
  br label %74, !llvm.loop !9

86:                                               ; preds = %74
  store i32 0, ptr %15, align 4
  br label %87

87:                                               ; preds = %86, %81
  call void @llvm.lifetime.end.p0(i64 4, ptr %16) #9
  %88 = load i32, ptr %15, align 4
  switch i32 %88, label %91 [
    i32 0, label %89
  ]

89:                                               ; preds = %87
  br label %90

90:                                               ; preds = %89, %68
  store i1 false, ptr %4, align 1
  store i32 1, ptr %15, align 4
  br label %91

91:                                               ; preds = %90, %87, %67
  call void @llvm.lifetime.end.p0(i64 8, ptr %9) #9
  call void @llvm.lifetime.end.p0(i64 20, ptr %8) #9
  %92 = load i1, ptr %4, align 1
  ret i1 %92
}