; Function Attrs: nounwind uwtable
define dso_local noundef zeroext i1 @LockHeldByMe(ptr noundef readonly captures(none) %0, i32 noundef %1, i1 noundef zeroext %2) local_unnamed_addr #0 {
  %4 = alloca %struct.LOCALLOCKTAG, align 4
  %5 = alloca %struct.LOCALLOCKTAG, align 4
  call void @llvm.lifetime.start.p0(i64 20, ptr nonnull %5) #17
  call void @llvm.memcpy.p0.p0.i64(ptr noundef nonnull align 4 dereferenceable(16) %5, ptr noundef nonnull align 4 dereferenceable(16) %0, i64 16, i1 false)
  %6 = getelementptr inbounds nuw i8, ptr %5, i64 16
  store i32 %1, ptr %6, align 4
  %7 = load ptr, ptr @LockMethodLocalHash, align 8
  %8 = call ptr @hash_search(ptr noundef %7, ptr noundef nonnull %5, i32 noundef 0, ptr noundef null) #17
  %.not = icmp eq ptr %8, null
  br i1 %.not, label %13, label %9

9:                                                ; preds = %3
  %10 = getelementptr inbounds nuw i8, ptr %8, i64 40
  %11 = load i64, ptr %10, align 8
  %12 = icmp sgt i64 %11, 0
  %.not32 = xor i1 %2, true
  %brmerge = or i1 %12, %.not32
  br i1 %brmerge, label %.critedge, label %.preheader

13:                                               ; preds = %3
  br i1 %2, label %.preheader, label %.critedge

.preheader:                                       ; preds = %13, %9
  %.033 = add i32 %1, 1
  %14 = icmp sgt i32 %.033, 8
  br i1 %14, label %.critedge, label %.lr.ph

.lr.ph:                                           ; preds = %.preheader
  %15 = getelementptr inbounds nuw i8, ptr %4, i64 16
  br label %16

16:                                               ; preds = %.lr.ph, %LockHeldByMe.exit
  %.034 = phi i32 [ %.033, %.lr.ph ], [ %.0, %LockHeldByMe.exit ]
  call void @llvm.lifetime.start.p0(i64 20, ptr nonnull %4) #17
  call void @llvm.memcpy.p0.p0.i64(ptr noundef nonnull align 4 dereferenceable(16) %4, ptr noundef nonnull align 4 dereferenceable(16) %0, i64 16, i1 false)
  store i32 %.034, ptr %15, align 4
  %17 = load ptr, ptr @LockMethodLocalHash, align 8
  %18 = call ptr @hash_search(ptr noundef %17, ptr noundef nonnull %4, i32 noundef 0, ptr noundef null) #17
  %.not.i = icmp eq ptr %18, null
  br i1 %.not.i, label %LockHeldByMe.exit, label %19

19:                                               ; preds = %16
  %20 = getelementptr inbounds nuw i8, ptr %18, i64 40
  %21 = load i64, ptr %20, align 8
  %22 = icmp sgt i64 %21, 0
  br i1 %22, label %23, label %LockHeldByMe.exit

LockHeldByMe.exit:                                ; preds = %16, %19
  call void @llvm.lifetime.end.p0(i64 20, ptr nonnull %4) #17
  %.0 = add nsw i32 %.034, 1
  %exitcond = icmp eq i32 %.0, 9
  br i1 %exitcond, label %.critedge, label %16, !llvm.loop !7

23:                                               ; preds = %19
  call void @llvm.lifetime.end.p0(i64 20, ptr nonnull %4) #17
  br label %.critedge

.critedge:                                        ; preds = %LockHeldByMe.exit, %.preheader, %9, %13, %23
  %.028 = phi i1 [ true, %23 ], [ %12, %9 ], [ false, %13 ], [ false, %.preheader ], [ false, %LockHeldByMe.exit ]
  call void @llvm.lifetime.end.p0(i64 20, ptr nonnull %5) #17
  ret i1 %.028
}